; Function Attrs: mustprogress uwtable
define hidden void @_ZN5lackr8abstractEv(ptr noundef nonnull align 8 dereferenceable(297) %0) local_unnamed_addr #3 align 2 personality ptr @__gxx_personality_v0 {
  %2 = alloca %class.obj_ref.61, align 8
  %3 = getelementptr inbounds nuw i8, ptr %0, i64 56
  tail call void @_ZN5lackr12abstract_funERK7obj_mapI9func_declPN11ackr_helper7app_occEE(ptr noundef nonnull align 8 dereferenceable(297) %0, ptr noundef nonnull align 8 dereferenceable(24) %3)
  %4 = getelementptr inbounds nuw i8, ptr %0, i64 80
  tail call void @_ZN5lackr12abstract_selERK7obj_mapI3appPN11ackr_helper7app_occEE(ptr noundef nonnull align 8 dereferenceable(297) %0, ptr noundef nonnull align 8 dereferenceable(24) %4)
  %5 = getelementptr inbounds nuw i8, ptr %0, i64 104
  %6 = load ptr, ptr %5, align 8, !tbaa !27
  %7 = getelementptr inbounds nuw i8, ptr %6, i64 132
  store i8 1, ptr %7, align 4, !tbaa !160
  %8 = getelementptr inbounds nuw i8, ptr %6, i64 64
  %9 = load ptr, ptr %8, align 8, !tbaa !159
  %10 = getelementptr inbounds nuw i8, ptr %6, i64 72
  %11 = load ptr, ptr %9, align 8, !tbaa !61
  %12 = getelementptr inbounds nuw i8, ptr %11, i64 24
  %13 = load ptr, ptr %12, align 8
  tail call void %13(ptr noundef nonnull align 8 dereferenceable(8) %9, ptr noundef nonnull %10)
  %14 = getelementptr inbounds nuw i8, ptr %0, i64 16
  %15 = load ptr, ptr %14, align 8, !tbaa !161
  %16 = load ptr, ptr %15, align 8, !tbaa !10
  %17 = icmp eq ptr %16, null
  br i1 %17, label %._crit_edge, label %_ZNK6vectorIP4exprLb0EjE3endEv.exit

_ZNK6vectorIP4exprLb0EjE3endEv.exit:              ; preds = %1
  %18 = getelementptr inbounds i8, ptr %16, i64 -4
  %19 = load i32, ptr %18, align 4, !tbaa !83
  %20 = zext i32 %19 to i64
  %21 = getelementptr inbounds nuw ptr, ptr %16, i64 %20
  %.not9 = icmp eq i32 %19, 0
  br i1 %.not9, label %._crit_edge, label %.lr.ph

.lr.ph:                                           ; preds = %_ZNK6vectorIP4exprLb0EjE3endEv.exit
  %22 = getelementptr inbounds nuw i8, ptr %2, i64 8
  %23 = getelementptr inbounds nuw i8, ptr %0, i64 48
  br label %24

._crit_edge:                                      ; preds = %_ZN7obj_refI4expr11ast_managerED2Ev.exit, %1, %_ZNK6vectorIP4exprLb0EjE3endEv.exit
  ret void

24:                                               ; preds = %.lr.ph, %_ZN7obj_refI4expr11ast_managerED2Ev.exit
  %.010 = phi ptr [ %16, %.lr.ph ], [ %49, %_ZN7obj_refI4expr11ast_managerED2Ev.exit ]
  %25 = load ptr, ptr %.010, align 8, !tbaa !84
  call void @llvm.lifetime.start.p0(i64 16, ptr nonnull %2) #19
  %26 = load ptr, ptr %5, align 8, !tbaa !27
  call void @llvm.experimental.noalias.scope.decl(metadata !181)
  %27 = getelementptr inbounds nuw i8, ptr %26, i64 8
  %28 = load ptr, ptr %27, align 8, !tbaa !184, !noalias !181
  store ptr null, ptr %2, align 8, !tbaa !133, !alias.scope !181
  store ptr %28, ptr %22, align 8, !tbaa !3, !alias.scope !181
  %29 = getelementptr inbounds nuw i8, ptr %26, i64 64
  %30 = load ptr, ptr %29, align 8, !tbaa !159, !noalias !181
  invoke void @_ZN13expr_replacerclEP4exprR7obj_refIS0_11ast_managerE(ptr noundef nonnull align 8 dereferenceable(8) %30, ptr noundef %25, ptr noundef nonnull align 8 dereferenceable(16) %2)
          to label %_ZN9ackr_info8abstractEP4expr.exit unwind label %31

common.resume:                                    ; preds = %50, %31
  %common.resume.op = phi { ptr, i32 } [ %32, %31 ], [ %51, %50 ]
  resume { ptr, i32 } %common.resume.op

31:                                               ; preds = %24
  %32 = landingpad { ptr, i32 }
          cleanup
  call void @_ZN7obj_refI4expr11ast_managerED2Ev(ptr noundef nonnull align 8 dereferenceable(16) %2) #19
  br label %common.resume

_ZN9ackr_info8abstractEP4expr.exit:               ; preds = %24
  %33 = load ptr, ptr %2, align 8, !tbaa !133
  %34 = load ptr, ptr %23, align 8, !tbaa !10
  %35 = icmp eq ptr %34, null
  br i1 %35, label %42, label %36

36:                                               ; preds = %_ZN9ackr_info8abstractEP4expr.exit
  %37 = getelementptr inbounds i8, ptr %34, i64 -4
  %38 = load i32, ptr %37, align 4, !tbaa !83
  %39 = getelementptr inbounds i8, ptr %34, i64 -8
  %40 = load i32, ptr %39, align 4, !tbaa !83
  %41 = icmp eq i32 %38, %40
  br i1 %41, label %42, label %_ZN7obj_refI4expr11ast_managerED2Ev.exit

42:                                               ; preds = %36, %_ZN9ackr_info8abstractEP4expr.exit
  invoke void @_ZN6vectorIP4exprLb0EjE13expand_vectorEv(ptr noundef nonnull align 8 dereferenceable(8) %23)
          to label %.noexc unwind label %50

.noexc:                                           ; preds = %42
  %.pre.i.i = load ptr, ptr %23, align 8, !tbaa !10
  %.phi.trans.insert.i.i = getelementptr inbounds i8, ptr %.pre.i.i, i64 -4
  %.pre2.i.i = load i32, ptr %.phi.trans.insert.i.i, align 4, !tbaa !83
  br label %_ZN7obj_refI4expr11ast_managerED2Ev.exit

_ZN7obj_refI4expr11ast_managerED2Ev.exit:         ; preds = %36, %.noexc
  %43 = phi i32 [ %.pre2.i.i, %.noexc ], [ %38, %36 ]
  %44 = phi ptr [ %.pre.i.i, %.noexc ], [ %34, %36 ]
  %45 = getelementptr inbounds i8, ptr %44, i64 -4
  %46 = zext i32 %43 to i64
  %47 = getelementptr inbounds nuw ptr, ptr %44, i64 %46
  store ptr %33, ptr %47, align 8, !tbaa !84
  %48 = add i32 %43, 1
  store i32 %48, ptr %45, align 4, !tbaa !83
  call void @llvm.lifetime.end.p0(i64 16, ptr nonnull %2) #19
  %49 = getelementptr inbounds nuw i8, ptr %.010, i64 8
  %.not = icmp eq ptr %49, %21
  br i1 %.not, label %._crit_edge, label %24

50:                                               ; preds = %42
  %51 = landingpad { ptr, i32 }
          cleanup
  call void @_ZN7obj_refI4expr11ast_managerED2Ev(ptr noundef nonnull align 8 dereferenceable(16) %2) #19
  call void @llvm.lifetime.end.p0(i64 16, ptr nonnull %2) #19
  br label %common.resume
}